target datalayout = "e-m:e-p270:32:32-p271:32:32-p272:64:64-i64:64-i128:128-f80:128-n8:16:32:64-S128"
target triple = "x86_64-unknown-linux-gnu"

%"class.facebook::jsi::Runtime" = type { ptr }
%"class.facebook::jsi::Instrumentation" = type { ptr }
%"class.std::recursive_mutex" = type { %"class.std::__recursive_mutex_base" }
%"class.std::__recursive_mutex_base" = type { %union.pthread_mutex_t }
%union.pthread_mutex_t = type { %struct.__pthread_mutex_s }
%struct.__pthread_mutex_s = type { i32, i32, i32, i32, i32, i16, i16, %struct.__pthread_internal_list }
%struct.__pthread_internal_list = type { ptr, ptr }
%"class.facebook::jsi::Value" = type { i32, %"union.facebook::jsi::Value::Data" }
%"union.facebook::jsi::Value::Data" = type { double }
%"class.facebook::jsi::WithRuntimeDecorator" = type { %"class.facebook::jsi::RuntimeDecorator", ptr }
%"class.facebook::jsi::RuntimeDecorator" = type { %"class.facebook::jsi::ThreadSafeRuntime", %"class.facebook::jsi::Instrumentation", ptr }
%"class.facebook::jsi::ThreadSafeRuntime" = type { %"class.facebook::jsi::Runtime" }
%"struct.facebook::jsi::detail::WithLock" = type { %"class.facebook::hermes::(anonymous namespace)::HermesMutex" }
%"class.facebook::hermes::(anonymous namespace)::HermesMutex" = type { %"class.std::recursive_mutex" }
%"struct.facebook::jsi::WithRuntimeDecorator<facebook::jsi::detail::WithLock<facebook::hermes::HermesRuntimeImpl, facebook::hermes::(anonymous namespace)::HermesMutex>, facebook::hermes::HermesRuntimeImpl, facebook::jsi::ThreadSafeRuntime>::Around" = type { ptr }

; Function Attrs: mustprogress nounwind uwtable
define internal noundef i32 @_ZL18__gthread_active_pv() #1 {
entry:
  ret i32 1
}

; Function Attrs: mustprogress nounwind uwtable
define internal noundef i32 @_ZL22__gthread_mutex_unlockP15pthread_mutex_t(ptr noundef %__mutex) #1 {
entry:
  %retval = alloca i32, align 4
  %__mutex.addr = alloca ptr, align 8
  store ptr %__mutex, ptr %__mutex.addr, align 8
  %call = call noundef i32 @_ZL18__gthread_active_pv()
  %tobool = icmp ne i32 %call, 0
  br i1 %tobool, label %if.then, label %if.else

if.then:                                          ; preds = %entry
  %0 = load ptr, ptr %__mutex.addr, align 8
  %call1 = call i32 @pthread_mutex_unlock(ptr noundef %0) #19
  store i32 %call1, ptr %retval, align 4
  br label %return

if.else:                                          ; preds = %entry
  store i32 0, ptr %retval, align 4
  br label %return

return:                                           ; preds = %if.else, %if.then
  %1 = load i32, ptr %retval, align 4
  ret i32 %1
}

; Function Attrs: mustprogress uwtable
define internal noundef i32 @_ZL20__gthread_mutex_lockP15pthread_mutex_t(ptr noundef %__mutex) #0 {
entry:
  %retval = alloca i32, align 4
  %__mutex.addr = alloca ptr, align 8
  store ptr %__mutex, ptr %__mutex.addr, align 8
  %call = call noundef i32 @_ZL18__gthread_active_pv()
  %tobool = icmp ne i32 %call, 0
  br i1 %tobool, label %if.then, label %if.else

if.then:                                          ; preds = %entry
  %0 = load ptr, ptr %__mutex.addr, align 8
  %call1 = call i32 @pthread_mutex_lock(ptr noundef %0) #19
  store i32 %call1, ptr %retval, align 4
  br label %return

if.else:                                          ; preds = %entry
  store i32 0, ptr %retval, align 4
  br label %return

return:                                           ; preds = %if.else, %if.then
  %1 = load i32, ptr %retval, align 4
  ret i32 %1
}

; Function Attrs: mustprogress uwtable
define internal noundef i32 @_ZL32__gthread_recursive_mutex_unlockP15pthread_mutex_t(ptr noundef %__mutex) #0 {
entry:
  %__mutex.addr = alloca ptr, align 8
  store ptr %__mutex, ptr %__mutex.addr, align 8
  %0 = load ptr, ptr %__mutex.addr, align 8
  %call = call noundef i32 @_ZL22__gthread_mutex_unlockP15pthread_mutex_t(ptr noundef %0)
  ret i32 %call
}

; Function Attrs: mustprogress uwtable
define internal noundef i32 @_ZL30__gthread_recursive_mutex_lockP15pthread_mutex_t(ptr noundef %__mutex) #0 {
entry:
  %__mutex.addr = alloca ptr, align 8
  store ptr %__mutex, ptr %__mutex.addr, align 8
  %0 = load ptr, ptr %__mutex.addr, align 8
  %call = call noundef i32 @_ZL20__gthread_mutex_lockP15pthread_mutex_t(ptr noundef %0)
  ret i32 %call
}

; Function Attrs: mustprogress uwtable
define linkonce_odr void @_ZNSt15recursive_mutex6unlockEv(ptr noundef nonnull align 8 dereferenceable(40) %this) #0 comdat align 2 {
entry:
  %this.addr = alloca ptr, align 8
  store ptr %this, ptr %this.addr, align 8
  %this1 = load ptr, ptr %this.addr, align 8
  %_M_mutex = getelementptr inbounds %"class.std::__recursive_mutex_base", ptr %this1, i32 0, i32 0
  %call = call noundef i32 @_ZL32__gthread_recursive_mutex_unlockP15pthread_mutex_t(ptr noundef %_M_mutex)
  ret void
}

; Function Attrs: mustprogress uwtable
define linkonce_odr void @_ZNSt15recursive_mutex4lockEv(ptr noundef nonnull align 8 dereferenceable(40) %this) #0 comdat align 2 {
entry:
  %this.addr = alloca ptr, align 8
  %__e = alloca i32, align 4
  store ptr %this, ptr %this.addr, align 8
  %this1 = load ptr, ptr %this.addr, align 8
  %_M_mutex = getelementptr inbounds %"class.std::__recursive_mutex_base", ptr %this1, i32 0, i32 0
  %call = call noundef i32 @_ZL30__gthread_recursive_mutex_lockP15pthread_mutex_t(ptr noundef %_M_mutex)
  store i32 %call, ptr %__e, align 4
  %0 = load i32, ptr %__e, align 4
  %tobool = icmp ne i32 %0, 0
  br i1 %tobool, label %if.then, label %if.end

if.then:                                          ; preds = %entry
  %1 = load i32, ptr %__e, align 4
  call void @_ZSt20__throw_system_errori(i32 noundef %1) #21
  unreachable

if.end:                                           ; preds = %entry
  ret void
}

; Function Attrs: mustprogress uwtable
define internal void @_ZN8facebook3jsi6detail8WithLockINS_6hermes17HermesRuntimeImplENS3_12_GLOBAL__N_111HermesMutexEE5afterEv(ptr noundef nonnull align 8 dereferenceable(40) %this) #0 align 2 {
entry:
  %this.addr = alloca ptr, align 8
  store ptr %this, ptr %this.addr, align 8
  %this1 = load ptr, ptr %this.addr, align 8
  %lock = getelementptr inbounds %"struct.facebook::jsi::detail::WithLock", ptr %this1, i32 0, i32 0
  call void @_ZNSt15recursive_mutex6unlockEv(ptr noundef nonnull align 8 dereferenceable(40) %lock)
  ret void
}

; Function Attrs: mustprogress uwtable
define internal void @_ZN8facebook3jsi6detail8WithLockINS_6hermes17HermesRuntimeImplENS3_12_GLOBAL__N_111HermesMutexEE6beforeEv(ptr noundef nonnull align 8 dereferenceable(40) %this) #0 align 2 {
entry:
  %this.addr = alloca ptr, align 8
  store ptr %this, ptr %this.addr, align 8
  %this1 = load ptr, ptr %this.addr, align 8
  %lock = getelementptr inbounds %"struct.facebook::jsi::detail::WithLock", ptr %this1, i32 0, i32 0
  call void @_ZNSt15recursive_mutex4lockEv(ptr noundef nonnull align 8 dereferenceable(40) %lock)
  ret void
}

; Function Attrs: noreturn nounwind uwtable
define linkonce_odr hidden void @__clang_call_terminate(ptr noundef %0) #13 comdat {
  %2 = call ptr @__cxa_begin_catch(ptr %0) #19
  call void @_ZSt9terminatev() #23
  unreachable
}

; Function Attrs: mustprogress uwtable
define internal void @_ZN8facebook3jsi6detail11AfterCallerINS1_8WithLockINS_6hermes17HermesRuntimeImplENS4_12_GLOBAL__N_111HermesMutexEEEvE5afterERS8_(ptr noundef nonnull align 8 dereferenceable(40) %t) #0 align 2 {
entry:
  %t.addr = alloca ptr, align 8
  store ptr %t, ptr %t.addr, align 8
  %0 = load ptr, ptr %t.addr, align 8
  call void @_ZN8facebook3jsi6detail8WithLockINS_6hermes17HermesRuntimeImplENS3_12_GLOBAL__N_111HermesMutexEE5afterEv(ptr noundef nonnull align 8 dereferenceable(40) %0)
  ret void
}

; Function Attrs: mustprogress uwtable
define internal void @_ZN8facebook3jsi6detail12BeforeCallerINS1_8WithLockINS_6hermes17HermesRuntimeImplENS4_12_GLOBAL__N_111HermesMutexEEEvE6beforeERS8_(ptr noundef nonnull align 8 dereferenceable(40) %t) #0 align 2 {
entry:
  %t.addr = alloca ptr, align 8
  store ptr %t, ptr %t.addr, align 8
  %0 = load ptr, ptr %t.addr, align 8
  call void @_ZN8facebook3jsi6detail8WithLockINS_6hermes17HermesRuntimeImplENS3_12_GLOBAL__N_111HermesMutexEE6beforeEv(ptr noundef nonnull align 8 dereferenceable(40) %0)
  ret void
}

; Function Attrs: mustprogress nounwind uwtable
define internal void @_ZN8facebook3jsi20WithRuntimeDecoratorINS0_6detail8WithLockINS_6hermes17HermesRuntimeImplENS4_12_GLOBAL__N_111HermesMutexEEES5_NS0_17ThreadSafeRuntimeEE6AroundD2Ev(ptr noundef nonnull align 8 dereferenceable(8) %this) unnamed_addr #1 align 2 personality ptr @__gxx_personality_v0 {
entry:
  %this.addr = alloca ptr, align 8
  store ptr %this, ptr %this.addr, align 8
  %this1 = load ptr, ptr %this.addr, align 8
  %with_ = getelementptr inbounds %"struct.facebook::jsi::WithRuntimeDecorator<facebook::jsi::detail::WithLock<facebook::hermes::HermesRuntimeImpl, facebook::hermes::(anonymous namespace)::HermesMutex>, facebook::hermes::HermesRuntimeImpl, facebook::jsi::ThreadSafeRuntime>::Around", ptr %this1, i32 0, i32 0
  %0 = load ptr, ptr %with_, align 8
  invoke void @_ZN8facebook3jsi6detail11AfterCallerINS1_8WithLockINS_6hermes17HermesRuntimeImplENS4_12_GLOBAL__N_111HermesMutexEEEvE5afterERS8_(ptr noundef nonnull align 8 dereferenceable(40) %0)
          to label %invoke.cont unwind label %terminate.lpad

invoke.cont:                                      ; preds = %entry
  ret void

terminate.lpad:                                   ; preds = %entry
  %1 = landingpad { ptr, i32 }
          catch ptr null
  %2 = extractvalue { ptr, i32 } %1, 0
  call void @__clang_call_terminate(ptr %2) #23
  unreachable
}

; Function Attrs: mustprogress uwtable
define linkonce_odr hidden void @_ZN8facebook3jsi16RuntimeDecoratorINS_6hermes17HermesRuntimeImplENS0_17ThreadSafeRuntimeEE4callERKNS0_8FunctionERKNS0_5ValueEPSA_m(ptr noalias sret(%"class.facebook::jsi::Value") align 8 %agg.result, ptr noundef nonnull align 8 dereferenceable(24) %this, ptr noundef nonnull align 8 dereferenceable(8) %f, ptr noundef nonnull align 8 dereferenceable(16) %jsThis, ptr noundef %args, i64 noundef %count) unnamed_addr #0 comdat align 2 {
entry:
  %result.ptr = alloca ptr, align 8
  %this.addr = alloca ptr, align 8
  %f.addr = alloca ptr, align 8
  %jsThis.addr = alloca ptr, align 8
  %args.addr = alloca ptr, align 8
  %count.addr = alloca i64, align 8
  store ptr %agg.result, ptr %result.ptr, align 8
  store ptr %this, ptr %this.addr, align 8
  store ptr %f, ptr %f.addr, align 8
  store ptr %jsThis, ptr %jsThis.addr, align 8
  store ptr %args, ptr %args.addr, align 8
  store i64 %count, ptr %count.addr, align 8
  %this1 = load ptr, ptr %this.addr, align 8
  %plain_ = getelementptr inbounds %"class.facebook::jsi::RuntimeDecorator", ptr %this1, i32 0, i32 2
  %0 = load ptr, ptr %plain_, align 8
  %1 = load ptr, ptr %f.addr, align 8
  %2 = load ptr, ptr %jsThis.addr, align 8
  %3 = load ptr, ptr %args.addr, align 8
  %4 = load i64, ptr %count.addr, align 8
  call void @_ZN8facebook6hermes17HermesRuntimeImpl4callERKNS_3jsi8FunctionERKNS2_5ValueEPS7_m(ptr sret(%"class.facebook::jsi::Value") align 8 %agg.result, ptr noundef nonnull align 8 dereferenceable(184) %0, ptr noundef nonnull align 8 dereferenceable(8) %1, ptr noundef nonnull align 8 dereferenceable(16) %2, ptr noundef %3, i64 noundef %4)
  ret void
}

; Function Attrs: mustprogress uwtable
define internal void @_ZN8facebook3jsi20WithRuntimeDecoratorINS0_6detail8WithLockINS_6hermes17HermesRuntimeImplENS4_12_GLOBAL__N_111HermesMutexEEES5_NS0_17ThreadSafeRuntimeEE6AroundC2ERS8_(ptr noundef nonnull align 8 dereferenceable(8) %this, ptr noundef nonnull align 8 dereferenceable(40) %with) unnamed_addr #0 align 2 {
entry:
  %this.addr = alloca ptr, align 8
  %with.addr = alloca ptr, align 8
  store ptr %this, ptr %this.addr, align 8
  store ptr %with, ptr %with.addr, align 8
  %this1 = load ptr, ptr %this.addr, align 8
  %with_ = getelementptr inbounds %"struct.facebook::jsi::WithRuntimeDecorator<facebook::jsi::detail::WithLock<facebook::hermes::HermesRuntimeImpl, facebook::hermes::(anonymous namespace)::HermesMutex>, facebook::hermes::HermesRuntimeImpl, facebook::jsi::ThreadSafeRuntime>::Around", ptr %this1, i32 0, i32 0
  %0 = load ptr, ptr %with.addr, align 8
  store ptr %0, ptr %with_, align 8
  %with_2 = getelementptr inbounds %"struct.facebook::jsi::WithRuntimeDecorator<facebook::jsi::detail::WithLock<facebook::hermes::HermesRuntimeImpl, facebook::hermes::(anonymous namespace)::HermesMutex>, facebook::hermes::HermesRuntimeImpl, facebook::jsi::ThreadSafeRuntime>::Around", ptr %this1, i32 0, i32 0
  %1 = load ptr, ptr %with_2, align 8
  call void @_ZN8facebook3jsi6detail12BeforeCallerINS1_8WithLockINS_6hermes17HermesRuntimeImplENS4_12_GLOBAL__N_111HermesMutexEEEvE6beforeERS8_(ptr noundef nonnull align 8 dereferenceable(40) %1)
  ret void
}

; Function Attrs: mustprogress uwtable
define internal void @_ZN8facebook3jsi20WithRuntimeDecoratorINS0_6detail8WithLockINS_6hermes17HermesRuntimeImplENS4_12_GLOBAL__N_111HermesMutexEEES5_NS0_17ThreadSafeRuntimeEE4callERKNS0_8FunctionERKNS0_5ValueEPSF_m(ptr noalias sret(%"class.facebook::jsi::Value") align 8 %agg.result, ptr noundef nonnull align 8 dereferenceable(32) %this, ptr noundef nonnull align 8 dereferenceable(8) %f, ptr noundef nonnull align 8 dereferenceable(16) %jsThis, ptr noundef %args, i64 noundef %count) unnamed_addr #0 align 2 personality ptr @__gxx_personality_v0 {
entry:
  %result.ptr = alloca ptr, align 8
  %this.addr = alloca ptr, align 8
  %f.addr = alloca ptr, align 8
  %jsThis.addr = alloca ptr, align 8
  %args.addr = alloca ptr, align 8
  %count.addr = alloca i64, align 8
  %around = alloca %"struct.facebook::jsi::WithRuntimeDecorator<facebook::jsi::detail::WithLock<facebook::hermes::HermesRuntimeImpl, facebook::hermes::(anonymous namespace)::HermesMutex>, facebook::hermes::HermesRuntimeImpl, facebook::jsi::ThreadSafeRuntime>::Around", align 8
  %exn.slot = alloca ptr, align 8
  %ehselector.slot = alloca i32, align 4
  store ptr %agg.result, ptr %result.ptr, align 8
  store ptr %this, ptr %this.addr, align 8
  store ptr %f, ptr %f.addr, align 8
  store ptr %jsThis, ptr %jsThis.addr, align 8
  store ptr %args, ptr %args.addr, align 8
  store i64 %count, ptr %count.addr, align 8
  %this1 = load ptr, ptr %this.addr, align 8
  %with_ = getelementptr inbounds %"class.facebook::jsi::WithRuntimeDecorator", ptr %this1, i32 0, i32 1
  %0 = load ptr, ptr %with_, align 8
  call void @_ZN8facebook3jsi20WithRuntimeDecoratorINS0_6detail8WithLockINS_6hermes17HermesRuntimeImplENS4_12_GLOBAL__N_111HermesMutexEEES5_NS0_17ThreadSafeRuntimeEE6AroundC2ERS8_(ptr noundef nonnull align 8 dereferenceable(8) %around, ptr noundef nonnull align 8 dereferenceable(40) %0)
  %1 = load ptr, ptr %f.addr, align 8
  %2 = load ptr, ptr %jsThis.addr, align 8
  %3 = load ptr, ptr %args.addr, align 8
  %4 = load i64, ptr %count.addr, align 8
  invoke void @_ZN8facebook3jsi16RuntimeDecoratorINS_6hermes17HermesRuntimeImplENS0_17ThreadSafeRuntimeEE4callERKNS0_8FunctionERKNS0_5ValueEPSA_m(ptr sret(%"class.facebook::jsi::Value") align 8 %agg.result, ptr noundef nonnull align 8 dereferenceable(24) %this1, ptr noundef nonnull align 8 dereferenceable(8) %1, ptr noundef nonnull align 8 dereferenceable(16) %2, ptr noundef %3, i64 noundef %4)
          to label %invoke.cont unwind label %lpad

invoke.cont:                                      ; preds = %entry
  call void @_ZN8facebook3jsi20WithRuntimeDecoratorINS0_6detail8WithLockINS_6hermes17HermesRuntimeImplENS4_12_GLOBAL__N_111HermesMutexEEES5_NS0_17ThreadSafeRuntimeEE6AroundD2Ev(ptr noundef nonnull align 8 dereferenceable(8) %around) #19
  ret void

lpad:                                             ; preds = %entry
  %5 = landingpad { ptr, i32 }
          cleanup
  %6 = extractvalue { ptr, i32 } %5, 0
  store ptr %6, ptr %exn.slot, align 8
  %7 = extractvalue { ptr, i32 } %5, 1
  store i32 %7, ptr %ehselector.slot, align 4
  call void @_ZN8facebook3jsi20WithRuntimeDecoratorINS0_6detail8WithLockINS_6hermes17HermesRuntimeImplENS4_12_GLOBAL__N_111HermesMutexEEES5_NS0_17ThreadSafeRuntimeEE6AroundD2Ev(ptr noundef nonnull align 8 dereferenceable(8) %around) #19
  br label %eh.resume

eh.resume:                                        ; preds = %lpad
  %exn = load ptr, ptr %exn.slot, align 8
  %sel = load i32, ptr %ehselector.slot, align 4
  %lpad.val = insertvalue { ptr, i32 } poison, ptr %exn, 0
  %lpad.val2 = insertvalue { ptr, i32 } %lpad.val, i32 %sel, 1
  resume { ptr, i32 } %lpad.val2
}